target datalayout = "e-m:e-p270:32:32-p271:32:32-p272:64:64-i64:64-i128:128-f80:128-n8:16:32:64-S128"
target triple = "x86_64-pc-linux-gnu"

%struct.AVOption = type { ptr, ptr, i32, i32, %union.anon, double, double, i32, ptr }
%union.anon = type { i64 }

@.str.3 = private unnamed_addr constant [35 x i8] c"The \22%s\22 option is deprecated: %s\0A\00", align 1
@.str.4 = private unnamed_addr constant [1 x i8] zeroinitializer, align 1

; Function Attrs: nounwind uwtable
define i32 @av_opt_get(ptr noundef %0, ptr noundef %1, i32 noundef %2, ptr noundef %3) #0 {
  %5 = alloca i32, align 4
  %6 = alloca ptr, align 8
  %7 = alloca ptr, align 8
  %8 = alloca i32, align 4
  %9 = alloca ptr, align 8
  %10 = alloca ptr, align 8
  %11 = alloca ptr, align 8
  %12 = alloca ptr, align 8
  %13 = alloca ptr, align 8
  %14 = alloca [128 x i8], align 16
  %15 = alloca i32, align 4
  %16 = alloca i32, align 4
  store ptr %0, ptr %6, align 8, !tbaa !4
  store ptr %1, ptr %7, align 8, !tbaa !19
  store i32 %2, ptr %8, align 4, !tbaa !20
  store ptr %3, ptr %9, align 8, !tbaa !63
  call void @llvm.lifetime.start.p0(i64 8, ptr %10) #11
  call void @llvm.lifetime.start.p0(i64 8, ptr %11) #11
  call void @llvm.lifetime.start.p0(i64 8, ptr %12) #11
  %17 = load ptr, ptr %6, align 8, !tbaa !4
  %18 = load ptr, ptr %7, align 8, !tbaa !19
  %19 = load i32, ptr %8, align 4, !tbaa !20
  %20 = call ptr @av_opt_find2(ptr noundef %17, ptr noundef %18, ptr noundef null, i32 noundef 0, i32 noundef %19, ptr noundef %11)
  store ptr %20, ptr %12, align 8, !tbaa !8
  call void @llvm.lifetime.start.p0(i64 8, ptr %13) #11
  call void @llvm.lifetime.start.p0(i64 128, ptr %14) #11
  call void @llvm.lifetime.start.p0(i64 4, ptr %15) #11
  %21 = load ptr, ptr %12, align 8, !tbaa !8
  %22 = icmp ne ptr %21, null
  br i1 %22, label %23, label %36

23:                                               ; preds = %4
  %24 = load ptr, ptr %11, align 8, !tbaa !4
  %25 = icmp ne ptr %24, null
  br i1 %25, label %26, label %36

26:                                               ; preds = %23
  %27 = load ptr, ptr %12, align 8, !tbaa !8
  %28 = getelementptr inbounds nuw %struct.AVOption, ptr %27, i32 0, i32 2
  %29 = load i32, ptr %28, align 8, !tbaa !34
  %30 = icmp sle i32 %29, 0
  br i1 %30, label %31, label %37

31:                                               ; preds = %26
  %32 = load ptr, ptr %12, align 8, !tbaa !8
  %33 = getelementptr inbounds nuw %struct.AVOption, ptr %32, i32 0, i32 3
  %34 = load i32, ptr %33, align 4, !tbaa !21
  %35 = icmp ne i32 %34, 11
  br i1 %35, label %36, label %37

36:                                               ; preds = %31, %23, %4
  store i32 -1414549496, ptr %5, align 4
  store i32 1, ptr %16, align 4
  br label %118

37:                                               ; preds = %31, %26
  %38 = load ptr, ptr %12, align 8, !tbaa !8
  %39 = getelementptr inbounds nuw %struct.AVOption, ptr %38, i32 0, i32 7
  %40 = load i32, ptr %39, align 8, !tbaa !26
  %41 = and i32 %40, 131072
  %42 = icmp ne i32 %41, 0
  br i1 %42, label %43, label %49

43:                                               ; preds = %37
  %44 = load ptr, ptr %6, align 8, !tbaa !4
  %45 = load ptr, ptr %7, align 8, !tbaa !19
  %46 = load ptr, ptr %12, align 8, !tbaa !8
  %47 = getelementptr inbounds nuw %struct.AVOption, ptr %46, i32 0, i32 1
  %48 = load ptr, ptr %47, align 8, !tbaa !33
  call void (ptr, i32, ptr, ...) @av_log(ptr noundef %44, i32 noundef 24, ptr noundef @.str.3, ptr noundef %45, ptr noundef %48)
  br label %49

49:                                               ; preds = %43, %37
  %50 = load ptr, ptr %11, align 8, !tbaa !4
  %51 = load ptr, ptr %12, align 8, !tbaa !8
  %52 = getelementptr inbounds nuw %struct.AVOption, ptr %51, i32 0, i32 2
  %53 = load i32, ptr %52, align 8, !tbaa !34
  %54 = sext i32 %53 to i64
  %55 = getelementptr inbounds i8, ptr %50, i64 %54
  store ptr %55, ptr %10, align 8, !tbaa !4
  %56 = load ptr, ptr %12, align 8, !tbaa !8
  %57 = getelementptr inbounds nuw %struct.AVOption, ptr %56, i32 0, i32 3
  %58 = load i32, ptr %57, align 4, !tbaa !21
  %59 = and i32 %58, 65536
  %60 = icmp ne i32 %59, 0
  br i1 %60, label %61, label %87

61:                                               ; preds = %49
  %62 = load ptr, ptr %12, align 8, !tbaa !8
  %63 = load ptr, ptr %10, align 8, !tbaa !4
  %64 = load ptr, ptr %9, align 8, !tbaa !63
  %65 = call i32 @opt_get_array(ptr noundef %62, ptr noundef %63, ptr noundef %64)
  store i32 %65, ptr %15, align 4, !tbaa !20
  %66 = load i32, ptr %15, align 4, !tbaa !20
  %67 = icmp slt i32 %66, 0
  br i1 %67, label %68, label %70

68:                                               ; preds = %61
  %69 = load i32, ptr %15, align 4, !tbaa !20
  store i32 %69, ptr %5, align 4
  store i32 1, ptr %16, align 4
  br label %118

70:                                               ; preds = %61
  %71 = load ptr, ptr %9, align 8, !tbaa !63
  %72 = load ptr, ptr %71, align 8, !tbaa !19
  %73 = icmp ne ptr %72, null
  br i1 %73, label %86, label %74

74:                                               ; preds = %70
  %75 = load i32, ptr %8, align 4, !tbaa !20
  %76 = and i32 %75, 4
  %77 = icmp ne i32 %76, 0
  br i1 %77, label %86, label %78

78:                                               ; preds = %74
  %79 = call noalias ptr @av_strdup(ptr noundef @.str.4)
  %80 = load ptr, ptr %9, align 8, !tbaa !63
  store ptr %79, ptr %80, align 8, !tbaa !19
  %81 = load ptr, ptr %9, align 8, !tbaa !63
  %82 = load ptr, ptr %81, align 8, !tbaa !19
  %83 = icmp ne ptr %82, null
  br i1 %83, label %85, label %84

84:                                               ; preds = %78
  store i32 -12, ptr %5, align 4
  store i32 1, ptr %16, align 4
  br label %118

85:                                               ; preds = %78
  br label %86

86:                                               ; preds = %85, %74, %70
  store i32 0, ptr %5, align 4
  store i32 1, ptr %16, align 4
  br label %118

87:                                               ; preds = %49
  %88 = getelementptr inbounds [128 x i8], ptr %14, i64 0, i64 0
  store i8 0, ptr %88, align 16, !tbaa !35
  %89 = getelementptr inbounds [128 x i8], ptr %14, i64 0, i64 0
  store ptr %89, ptr %13, align 8, !tbaa !19
  %90 = load ptr, ptr %12, align 8, !tbaa !8
  %91 = load ptr, ptr %10, align 8, !tbaa !4
  %92 = load i32, ptr %8, align 4, !tbaa !20
  %93 = call i32 @opt_get_elem(ptr noundef %90, ptr noundef %13, i64 noundef 128, ptr noundef %91, i32 noundef %92)
  store i32 %93, ptr %15, align 4, !tbaa !20
  %94 = load i32, ptr %15, align 4, !tbaa !20
  %95 = icmp slt i32 %94, 0
  br i1 %95, label %96, label %98

96:                                               ; preds = %87
  %97 = load i32, ptr %15, align 4, !tbaa !20
  store i32 %97, ptr %5, align 4
  store i32 1, ptr %16, align 4
  br label %118

98:                                               ; preds = %87
  %99 = load ptr, ptr %13, align 8, !tbaa !19
  %100 = getelementptr inbounds [128 x i8], ptr %14, i64 0, i64 0
  %101 = icmp ne ptr %99, %100
  br i1 %101, label %102, label %105

102:                                              ; preds = %98
  %103 = load ptr, ptr %13, align 8, !tbaa !19
  %104 = load ptr, ptr %9, align 8, !tbaa !63
  store ptr %103, ptr %104, align 8, !tbaa !19
  store i32 0, ptr %5, align 4
  store i32 1, ptr %16, align 4
  br label %118

105:                                              ; preds = %98
  %106 = load i32, ptr %15, align 4, !tbaa !20
  %107 = sext i32 %106 to i64
  %108 = icmp uge i64 %107, 128
  br i1 %108, label %109, label %110

109:                                              ; preds = %105
  store i32 -22, ptr %5, align 4
  store i32 1, ptr %16, align 4
  br label %118

110:                                              ; preds = %105
  %111 = load ptr, ptr %13, align 8, !tbaa !19
  %112 = call noalias ptr @av_strdup(ptr noundef %111)
  %113 = load ptr, ptr %9, align 8, !tbaa !63
  store ptr %112, ptr %113, align 8, !tbaa !19
  %114 = load ptr, ptr %9, align 8, !tbaa !63
  %115 = load ptr, ptr %114, align 8, !tbaa !19
  %116 = icmp ne ptr %115, null
  %117 = select i1 %116, i32 0, i32 -12
  store i32 %117, ptr %5, align 4
  store i32 1, ptr %16, align 4
  br label %118

118:                                              ; preds = %110, %109, %102, %96, %86, %84, %68, %36
  call void @llvm.lifetime.end.p0(i64 4, ptr %15) #11
  call void @llvm.lifetime.end.p0(i64 128, ptr %14) #11
  call void @llvm.lifetime.end.p0(i64 8, ptr %13) #11
  call void @llvm.lifetime.end.p0(i64 8, ptr %12) #11
  call void @llvm.lifetime.end.p0(i64 8, ptr %11) #11
  call void @llvm.lifetime.end.p0(i64 8, ptr %10) #11
  %119 = load i32, ptr %5, align 4
  ret i32 %119
}