; Function Attrs: nounwind uwtable
define range(i32 -2147483648, 1) i32 @av_opt_get(ptr noundef %0, ptr noundef %1, i32 noundef %2, ptr noundef captures(none) %3) local_unnamed_addr #2 {
  %5 = alloca ptr, align 8
  %6 = alloca ptr, align 8
  %7 = alloca [128 x i8], align 16
  call void @llvm.lifetime.start.p0(i64 8, ptr nonnull %5) #18
  %8 = call ptr @av_opt_find2(ptr noundef %0, ptr noundef %1, ptr noundef null, i32 noundef 0, i32 noundef %2, ptr noundef nonnull %5)
  call void @llvm.lifetime.start.p0(i64 8, ptr nonnull %6) #18
  call void @llvm.lifetime.start.p0(i64 128, ptr nonnull %7) #18
  %9 = icmp ne ptr %8, null
  %10 = load ptr, ptr %5, align 8
  %11 = icmp ne ptr %10, null
  %or.cond = select i1 %9, i1 %11, i1 false
  br i1 %or.cond, label %12, label %53

12:                                               ; preds = %4
  %13 = getelementptr inbounds nuw i8, ptr %8, i64 16
  %14 = load i32, ptr %13, align 8, !tbaa !28
  %15 = icmp slt i32 %14, 1
  br i1 %15, label %16, label %19

16:                                               ; preds = %12
  %17 = getelementptr inbounds nuw i8, ptr %8, i64 20
  %18 = load i32, ptr %17, align 4, !tbaa !18
  %.not = icmp eq i32 %18, 11
  br i1 %.not, label %19, label %53

19:                                               ; preds = %16, %12
  %20 = getelementptr inbounds nuw i8, ptr %8, i64 48
  %21 = load i32, ptr %20, align 8, !tbaa !21
  %22 = and i32 %21, 131072
  %.not36 = icmp eq i32 %22, 0
  br i1 %.not36, label %26, label %23

23:                                               ; preds = %19
  %24 = getelementptr inbounds nuw i8, ptr %8, i64 8
  %25 = load ptr, ptr %24, align 8, !tbaa !27
  call void (ptr, i32, ptr, ...) @av_log(ptr noundef %0, i32 noundef 24, ptr noundef nonnull @.str.3, ptr noundef %1, ptr noundef %25) #18
  %.pre = load i32, ptr %13, align 8, !tbaa !28
  br label %26

26:                                               ; preds = %23, %19
  %27 = phi i32 [ %.pre, %23 ], [ %14, %19 ]
  %28 = sext i32 %27 to i64
  %29 = getelementptr inbounds i8, ptr %10, i64 %28
  %30 = getelementptr inbounds nuw i8, ptr %8, i64 20
  %31 = load i32, ptr %30, align 4, !tbaa !18
  %32 = and i32 %31, 65536
  %.not37 = icmp eq i32 %32, 0
  br i1 %.not37, label %42, label %33

33:                                               ; preds = %26
  %34 = call fastcc i32 @opt_get_array(ptr noundef %8, ptr noundef nonnull %29, ptr noundef %3)
  %35 = icmp slt i32 %34, 0
  br i1 %35, label %53, label %36

36:                                               ; preds = %33
  %37 = load ptr, ptr %3, align 8, !tbaa !33
  %.not40 = icmp eq ptr %37, null
  %38 = and i32 %2, 4
  %.not41 = icmp eq i32 %38, 0
  %or.cond43 = and i1 %.not41, %.not40
  br i1 %or.cond43, label %39, label %41

39:                                               ; preds = %36
  %40 = call noalias ptr @av_strdup(ptr noundef nonnull @.str.4) #18
  store ptr %40, ptr %3, align 8, !tbaa !33
  %.not42 = icmp eq ptr %40, null
  br i1 %.not42, label %53, label %41

41:                                               ; preds = %39, %36
  br label %53

42:                                               ; preds = %26
  store i8 0, ptr %7, align 16, !tbaa !29
  store ptr %7, ptr %6, align 8, !tbaa !33
  %43 = call fastcc i32 @opt_get_elem(ptr noundef %8, ptr noundef %6, ptr noundef nonnull %29, i32 noundef %2)
  %44 = icmp slt i32 %43, 0
  br i1 %44, label %53, label %45

45:                                               ; preds = %42
  %46 = load ptr, ptr %6, align 8, !tbaa !33
  %.not38 = icmp eq ptr %46, %7
  br i1 %.not38, label %48, label %47

47:                                               ; preds = %45
  store ptr %46, ptr %3, align 8, !tbaa !33
  br label %53

48:                                               ; preds = %45
  %49 = icmp samesign ugt i32 %43, 127
  br i1 %49, label %53, label %50

50:                                               ; preds = %48
  %51 = call noalias ptr @av_strdup(ptr noundef %46) #18
  store ptr %51, ptr %3, align 8, !tbaa !33
  %.not39 = icmp eq ptr %51, null
  %52 = select i1 %.not39, i32 -12, i32 0
  br label %53

53:                                               ; preds = %48, %42, %39, %33, %4, %16, %50, %47, %41
  %.0 = phi i32 [ 0, %41 ], [ 0, %47 ], [ %52, %50 ], [ -1414549496, %16 ], [ -1414549496, %4 ], [ %34, %33 ], [ -12, %39 ], [ %43, %42 ], [ -22, %48 ]
  call void @llvm.lifetime.end.p0(i64 128, ptr nonnull %7) #18
  call void @llvm.lifetime.end.p0(i64 8, ptr nonnull %6) #18
  call void @llvm.lifetime.end.p0(i64 8, ptr nonnull %5) #18
  ret i32 %.0
}